; ModuleID = '39/710.c'
source_filename = "39/710.c"
target datalayout = "e-m:e-p270:32:32-p271:32:32-p272:64:64-i64:64-f80:128-n8:16:32:64-S128"
target triple = "x86_64-pc-linux-gnu"

%struct.student = type { [20 x i8], i32, i32, i8, i8, i32, i32 }

@.str = private unnamed_addr constant [3 x i8] c"%d\00", align 1
@.str.1 = private unnamed_addr constant [16 x i8] c"%s%d%d %c %c %d\00", align 1
@.str.2 = private unnamed_addr constant [9 x i8] c"%s\0A%d\0A%d\00", align 1

; Function Attrs: noinline nounwind uwtable
define dso_local i32 @main() #0 {
  %1 = alloca i32, align 4
  %2 = alloca i32, align 4
  %3 = alloca i32, align 4
  %4 = alloca i32, align 4
  %5 = alloca [100 x %struct.student], align 16
  %6 = alloca %struct.student, align 4
  store i32 0, i32* %1, align 4
  store i32 0, i32* %4, align 4
  %7 = getelementptr inbounds %struct.student, %struct.student* %6, i32 0, i32 6
  store i32 0, i32* %7, align 4
  %8 = call i32 (i8*, ...) @__isoc99_scanf(i8* getelementptr inbounds ([3 x i8], [3 x i8]* @.str, i64 0, i64 0), i32* %2)
  store i32 0, i32* %3, align 4
  br label %9

9:                                                ; preds = %171, %0
  %10 = load i32, i32* %3, align 4
  %11 = load i32, i32* %2, align 4
  %12 = icmp slt i32 %10, %11
  br i1 %12, label %13, label %174

13:                                               ; preds = %9
  %14 = load i32, i32* %3, align 4
  %15 = sext i32 %14 to i64
  %16 = getelementptr inbounds [100 x %struct.student], [100 x %struct.student]* %5, i64 0, i64 %15
  %17 = getelementptr inbounds %struct.student, %struct.student* %16, i32 0, i32 0
  %18 = getelementptr inbounds [20 x i8], [20 x i8]* %17, i64 0, i64 0
  %19 = load i32, i32* %3, align 4
  %20 = sext i32 %19 to i64
  %21 = getelementptr inbounds [100 x %struct.student], [100 x %struct.student]* %5, i64 0, i64 %20
  %22 = getelementptr inbounds %struct.student, %struct.student* %21, i32 0, i32 1
  %23 = load i32, i32* %3, align 4
  %24 = sext i32 %23 to i64
  %25 = getelementptr inbounds [100 x %struct.student], [100 x %struct.student]* %5, i64 0, i64 %24
  %26 = getelementptr inbounds %struct.student, %struct.student* %25, i32 0, i32 2
  %27 = load i32, i32* %3, align 4
  %28 = sext i32 %27 to i64
  %29 = getelementptr inbounds [100 x %struct.student], [100 x %struct.student]* %5, i64 0, i64 %28
  %30 = getelementptr inbounds %struct.student, %struct.student* %29, i32 0, i32 3
  %31 = load i32, i32* %3, align 4
  %32 = sext i32 %31 to i64
  %33 = getelementptr inbounds [100 x %struct.student], [100 x %struct.student]* %5, i64 0, i64 %32
  %34 = getelementptr inbounds %struct.student, %struct.student* %33, i32 0, i32 4
  %35 = load i32, i32* %3, align 4
  %36 = sext i32 %35 to i64
  %37 = getelementptr inbounds [100 x %struct.student], [100 x %struct.student]* %5, i64 0, i64 %36
  %38 = getelementptr inbounds %struct.student, %struct.student* %37, i32 0, i32 5
  %39 = call i32 (i8*, ...) @__isoc99_scanf(i8* getelementptr inbounds ([16 x i8], [16 x i8]* @.str.1, i64 0, i64 0), i8* %18, i32* %22, i32* %26, i8* %30, i8* %34, i32* %38)
  %40 = load i32, i32* %3, align 4
  %41 = sext i32 %40 to i64
  %42 = getelementptr inbounds [100 x %struct.student], [100 x %struct.student]* %5, i64 0, i64 %41
  %43 = getelementptr inbounds %struct.student, %struct.student* %42, i32 0, i32 6
  store i32 0, i32* %43, align 4
  %44 = load i32, i32* %3, align 4
  %45 = sext i32 %44 to i64
  %46 = getelementptr inbounds [100 x %struct.student], [100 x %struct.student]* %5, i64 0, i64 %45
  %47 = getelementptr inbounds %struct.student, %struct.student* %46, i32 0, i32 1
  %48 = load i32, i32* %47, align 4
  %49 = icmp sgt i32 %48, 80
  br i1 %49, label %50, label %68

50:                                               ; preds = %13
  %51 = load i32, i32* %3, align 4
  %52 = sext i32 %51 to i64
  %53 = getelementptr inbounds [100 x %struct.student], [100 x %struct.student]* %5, i64 0, i64 %52
  %54 = getelementptr inbounds %struct.student, %struct.student* %53, i32 0, i32 5
  %55 = load i32, i32* %54, align 8
  %56 = icmp sgt i32 %55, 0
  br i1 %56, label %57, label %68

57:                                               ; preds = %50
  %58 = load i32, i32* %3, align 4
  %59 = sext i32 %58 to i64
  %60 = getelementptr inbounds [100 x %struct.student], [100 x %struct.student]* %5, i64 0, i64 %59
  %61 = getelementptr inbounds %struct.student, %struct.student* %60, i32 0, i32 6
  %62 = load i32, i32* %61, align 4
  %63 = add nsw i32 %62, 8000
  %64 = load i32, i32* %3, align 4
  %65 = sext i32 %64 to i64
  %66 = getelementptr inbounds [100 x %struct.student], [100 x %struct.student]* %5, i64 0, i64 %65
  %67 = getelementptr inbounds %struct.student, %struct.student* %66, i32 0, i32 6
  store i32 %63, i32* %67, align 4
  br label %68

68:                                               ; preds = %57, %50, %13
  %69 = load i32, i32* %3, align 4
  %70 = sext i32 %69 to i64
  %71 = getelementptr inbounds [100 x %struct.student], [100 x %struct.student]* %5, i64 0, i64 %70
  %72 = getelementptr inbounds %struct.student, %struct.student* %71, i32 0, i32 1
  %73 = load i32, i32* %72, align 4
  %74 = icmp sgt i32 %73, 85
  br i1 %74, label %75, label %93

75:                                               ; preds = %68
  %76 = load i32, i32* %3, align 4
  %77 = sext i32 %76 to i64
  %78 = getelementptr inbounds [100 x %struct.student], [100 x %struct.student]* %5, i64 0, i64 %77
  %79 = getelementptr inbounds %struct.student, %struct.student* %78, i32 0, i32 2
  %80 = load i32, i32* %79, align 8
  %81 = icmp sgt i32 %80, 80
  br i1 %81, label %82, label %93

82:                                               ; preds = %75
  %83 = load i32, i32* %3, align 4
  %84 = sext i32 %83 to i64
  %85 = getelementptr inbounds [100 x %struct.student], [100 x %struct.student]* %5, i64 0, i64 %84
  %86 = getelementptr inbounds %struct.student, %struct.student* %85, i32 0, i32 6
  %87 = load i32, i32* %86, align 4
  %88 = add nsw i32 %87, 4000
  %89 = load i32, i32* %3, align 4
  %90 = sext i32 %89 to i64
  %91 = getelementptr inbounds [100 x %struct.student], [100 x %struct.student]* %5, i64 0, i64 %90
  %92 = getelementptr inbounds %struct.student, %struct.student* %91, i32 0, i32 6
  store i32 %88, i32* %92, align 4
  br label %93

93:                                               ; preds = %82, %75, %68
  %94 = load i32, i32* %3, align 4
  %95 = sext i32 %94 to i64
  %96 = getelementptr inbounds [100 x %struct.student], [100 x %struct.student]* %5, i64 0, i64 %95
  %97 = getelementptr inbounds %struct.student, %struct.student* %96, i32 0, i32 1
  %98 = load i32, i32* %97, align 4
  %99 = icmp sgt i32 %98, 90
  br i1 %99, label %100, label %111

100:                                              ; preds = %93
  %101 = load i32, i32* %3, align 4
  %102 = sext i32 %101 to i64
  %103 = getelementptr inbounds [100 x %struct.student], [100 x %struct.student]* %5, i64 0, i64 %102
  %104 = getelementptr inbounds %struct.student, %struct.student* %103, i32 0, i32 6
  %105 = load i32, i32* %104, align 4
  %106 = add nsw i32 %105, 2000
  %107 = load i32, i32* %3, align 4
  %108 = sext i32 %107 to i64
  %109 = getelementptr inbounds [100 x %struct.student], [100 x %struct.student]* %5, i64 0, i64 %108
  %110 = getelementptr inbounds %struct.student, %struct.student* %109, i32 0, i32 6
  store i32 %106, i32* %110, align 4
  br label %111

111:                                              ; preds = %100, %93
  %112 = load i32, i32* %3, align 4
  %113 = sext i32 %112 to i64
  %114 = getelementptr inbounds [100 x %struct.student], [100 x %struct.student]* %5, i64 0, i64 %113
  %115 = getelementptr inbounds %struct.student, %struct.student* %114, i32 0, i32 1
  %116 = load i32, i32* %115, align 4
  %117 = icmp sgt i32 %116, 85
  br i1 %117, label %118, label %137

118:                                              ; preds = %111
  %119 = load i32, i32* %3, align 4
  %120 = sext i32 %119 to i64
  %121 = getelementptr inbounds [100 x %struct.student], [100 x %struct.student]* %5, i64 0, i64 %120
  %122 = getelementptr inbounds %struct.student, %struct.student* %121, i32 0, i32 4
  %123 = load i8, i8* %122, align 1
  %124 = sext i8 %123 to i32
  %125 = icmp eq i32 %124, 89
  br i1 %125, label %126, label %137

126:                                              ; preds = %118
  %127 = load i32, i32* %3, align 4
  %128 = sext i32 %127 to i64
  %129 = getelementptr inbounds [100 x %struct.student], [100 x %struct.student]* %5, i64 0, i64 %128
  %130 = getelementptr inbounds %struct.student, %struct.student* %129, i32 0, i32 6
  %131 = load i32, i32* %130, align 4
  %132 = add nsw i32 %131, 1000
  %133 = load i32, i32* %3, align 4
  %134 = sext i32 %133 to i64
  %135 = getelementptr inbounds [100 x %struct.student], [100 x %struct.student]* %5, i64 0, i64 %134
  %136 = getelementptr inbounds %struct.student, %struct.student* %135, i32 0, i32 6
  store i32 %132, i32* %136, align 4
  br label %137

137:                                              ; preds = %126, %118, %111
  %138 = load i32, i32* %3, align 4
  %139 = sext i32 %138 to i64
  %140 = getelementptr inbounds [100 x %struct.student], [100 x %struct.student]* %5, i64 0, i64 %139
  %141 = getelementptr inbounds %struct.student, %struct.student* %140, i32 0, i32 2
  %142 = load i32, i32* %141, align 8
  %143 = icmp sgt i32 %142, 80
  br i1 %143, label %144, label %163

144:                                              ; preds = %137
  %145 = load i32, i32* %3, align 4
  %146 = sext i32 %145 to i64
  %147 = getelementptr inbounds [100 x %struct.student], [100 x %struct.student]* %5, i64 0, i64 %146
  %148 = getelementptr inbounds %struct.student, %struct.student* %147, i32 0, i32 3
  %149 = load i8, i8* %148, align 4
  %150 = sext i8 %149 to i32
  %151 = icmp eq i32 %150, 89
  br i1 %151, label %152, label %163

152:                                              ; preds = %144
  %153 = load i32, i32* %3, align 4
  %154 = sext i32 %153 to i64
  %155 = getelementptr inbounds [100 x %struct.student], [100 x %struct.student]* %5, i64 0, i64 %154
  %156 = getelementptr inbounds %struct.student, %struct.student* %155, i32 0, i32 6
  %157 = load i32, i32* %156, align 4
  %158 = add nsw i32 %157, 850
  %159 = load i32, i32* %3, align 4
  %160 = sext i32 %159 to i64
  %161 = getelementptr inbounds [100 x %struct.student], [100 x %struct.student]* %5, i64 0, i64 %160
  %162 = getelementptr inbounds %struct.student, %struct.student* %161, i32 0, i32 6
  store i32 %158, i32* %162, align 4
  br label %163

163:                                              ; preds = %152, %144, %137
  %164 = load i32, i32* %4, align 4
  %165 = load i32, i32* %3, align 4
  %166 = sext i32 %165 to i64
  %167 = getelementptr inbounds [100 x %struct.student], [100 x %struct.student]* %5, i64 0, i64 %166
  %168 = getelementptr inbounds %struct.student, %struct.student* %167, i32 0, i32 6
  %169 = load i32, i32* %168, align 4
  %170 = add nsw i32 %164, %169
  store i32 %170, i32* %4, align 4
  br label %171

171:                                              ; preds = %163
  %172 = load i32, i32* %3, align 4
  %173 = add nsw i32 %172, 1
  store i32 %173, i32* %3, align 4
  br label %9

174:                                              ; preds = %9
  store i32 0, i32* %3, align 4
  br label %175

175:                                              ; preds = %195, %174
  %176 = load i32, i32* %3, align 4
  %177 = load i32, i32* %2, align 4
  %178 = icmp slt i32 %176, %177
  br i1 %178, label %179, label %198

179:                                              ; preds = %175
  %180 = load i32, i32* %3, align 4
  %181 = sext i32 %180 to i64
  %182 = getelementptr inbounds [100 x %struct.student], [100 x %struct.student]* %5, i64 0, i64 %181
  %183 = getelementptr inbounds %struct.student, %struct.student* %182, i32 0, i32 6
  %184 = load i32, i32* %183, align 4
  %185 = getelementptr inbounds %struct.student, %struct.student* %6, i32 0, i32 6
  %186 = load i32, i32* %185, align 4
  %187 = icmp sgt i32 %184, %186
  br i1 %187, label %188, label %194

188:                                              ; preds = %179
  %189 = load i32, i32* %3, align 4
  %190 = sext i32 %189 to i64
  %191 = getelementptr inbounds [100 x %struct.student], [100 x %struct.student]* %5, i64 0, i64 %190
  %192 = bitcast %struct.student* %6 to i8*
  %193 = bitcast %struct.student* %191 to i8*
  call void @llvm.memcpy.p0i8.p0i8.i64(i8* align 4 %192, i8* align 8 %193, i64 40, i1 false)
  br label %194

194:                                              ; preds = %188, %179
  br label %195

195:                                              ; preds = %194
  %196 = load i32, i32* %3, align 4
  %197 = add nsw i32 %196, 1
  store i32 %197, i32* %3, align 4
  br label %175

198:                                              ; preds = %175
  %199 = getelementptr inbounds %struct.student, %struct.student* %6, i32 0, i32 0
  %200 = getelementptr inbounds [20 x i8], [20 x i8]* %199, i64 0, i64 0
  %201 = getelementptr inbounds %struct.student, %struct.student* %6, i32 0, i32 6
  %202 = load i32, i32* %201, align 4
  %203 = load i32, i32* %4, align 4
  %204 = call i32 (i8*, ...) @printf(i8* getelementptr inbounds ([9 x i8], [9 x i8]* @.str.2, i64 0, i64 0), i8* %200, i32 %202, i32 %203)
  ret i32 0
}

declare dso_local i32 @__isoc99_scanf(i8*, ...) #1

; Function Attrs: argmemonly nounwind willreturn
declare void @llvm.memcpy.p0i8.p0i8.i64(i8* noalias nocapture writeonly, i8* noalias nocapture readonly, i64, i1 immarg) #2

declare dso_local i32 @printf(i8*, ...) #1


!llvm.module.flags = !{!0}
!llvm.ident = !{!1}

!0 = !{i32 1, !"wchar_size", i32 4}
!1 = !{!"clang version 10.0.0-4ubuntu1 "}
